Certificate:
    Data:
        Version: 3 (0x2)
        Serial Number: 1 (0x1)
    Signature Algorithm: ecdsa-with-SHA256
        Issuer: C=CN, ST=Zhejiang, O=hyperchain, OU=subroot2, CN=subroot2/emailAddress=subroot2@hyperchain.cn
        Validity
            Not Before: Nov  4 11:40:30 2016 GMT
            Not After : Nov  4 11:40:30 2017 GMT
        Subject: C=CN, ST=Zhejiang, O=hyperchain, OU=type2node1, CN=node1/emailAddress=node1@hyperchain.cn
        Subject Public Key Info:
            Public Key Algorithm: id-ecPublicKey
                Public-Key: (256 bit)
                pub: 
                    04:db:62:9e:47:68:bc:44:29:13:8b:6a:5a:09:1e:
                    b5:29:e4:30:10:f8:10:a1:da:2f:a4:a6:bd:ef:0c:
                    b8:9a:ed:e8:db:ec:18:bb:35:e8:f3:d4:1f:a4:d1:
                    a1:8f:6d:64:dc:71:e2:4c:6c:96:62:4f:12:4d:3e:
                    9c:9e:fa:99:36
                ASN1 OID: secp256k1
        X509v3 extensions:
            X509v3 Basic Constraints: 
                CA:FALSE
            Netscape Comment: 
                OpenSSL Generated Certificate
            X509v3 Subject Key Identifier: 
                D6:71:B5:DE:46:64:62:17:6A:60:01:A1:BE:A2:AB:EF:91:7D:3F:E9
            X509v3 Authority Key Identifier: 
                keyid:0B:15:61:5C:AE:71:F0:E4:96:AB:08:49:2A:FD:9D:79:E4:6E:A9:9B

    Signature Algorithm: ecdsa-with-SHA256
         30:44:02:20:63:a0:b8:12:21:4e:b4:17:92:d1:77:14:dc:d8:
         ef:2b:70:5e:6f:9f:6c:9a:ab:de:64:9b:00:a7:93:d3:26:32:
         02:20:3b:1c:07:56:9f:cc:10:6d:fa:c8:4c:f5:d9:e6:87:f1:
         1d:13:b1:6c:00:f0:0b:0d:4c:ff:3f:4f:59:7d:97:8b
-----BEGIN CERTIFICATE-----
MIICZzCCAg6gAwIBAgIBATAKBggqhkjOPQQDAjCBgjELMAkGA1UEBhMCQ04xETAP
BgNVBAgMCFpoZWppYW5nMRMwEQYDVQQKDApoeXBlcmNoYWluMREwDwYDVQQLDAhz
dWJyb290MjERMA8GA1UEAwwIc3Vicm9vdDIxJTAjBgkqhkiG9w0BCQEWFnN1YnJv
b3QyQGh5cGVyY2hhaW4uY24wHhcNMTYxMTA0MTE0MDMwWhcNMTcxMTA0MTE0MDMw
WjB+MQswCQYDVQQGEwJDTjERMA8GA1UECAwIWmhlamlhbmcxEzARBgNVBAoMCmh5
cGVyY2hhaW4xEzARBgNVBAsMCnR5cGUybm9kZTExDjAMBgNVBAMMBW5vZGUxMSIw
IAYJKoZIhvcNAQkBFhNub2RlMUBoeXBlcmNoYWluLmNuMFYwEAYHKoZIzj0CAQYF
K4EEAAoDQgAE22KeR2i8RCkTi2paCR61KeQwEPgQodovpKa97wy4mu3o2+wYuzXo
89QfpNGhj21k3HHiTGyWYk8STT6cnvqZNqN7MHkwCQYDVR0TBAIwADAsBglghkgB
hvhCAQ0EHxYdT3BlblNTTCBHZW5lcmF0ZWQgQ2VydGlmaWNhdGUwHQYDVR0OBBYE
FNZxtd5GZGIXamABob6iq++RfT/pMB8GA1UdIwQYMBaAFAsVYVyucfDklqsISSr9
nXnkbqmbMAoGCCqGSM49BAMCA0cAMEQCIGOguBIhTrQXktF3FNzY7ytwXm+fbJqr
3mSbAKeT0yYyAiA7HAdWn8wQbfrITPXZ5ofxHROxbADwCw1M/z9PWX2Xiw==
-----END CERTIFICATE-----
