Certificate:
    Data:
        Version: 3 (0x2)
        Serial Number: 2 (0x2)
    Signature Algorithm: ecdsa-with-SHA256
        Issuer: C=CN, ST=Zhejiang, L=Hangzhou, O=hyperchain, OU=root, CN=root cerficition/emailAddress=admin@hyperchain.cn
        Validity
            Not Before: Nov  4 11:34:24 2016 GMT
            Not After : Nov  4 11:34:24 2017 GMT
        Subject: C=CN, ST=Zhejiang, O=hyperchain, OU=subroot2, CN=subroot2/emailAddress=subroot2@hyperchain.cn
        Subject Public Key Info:
            Public Key Algorithm: id-ecPublicKey
                Public-Key: (256 bit)
                pub: 
                    04:ce:80:ce:c8:1b:98:03:fe:5f:63:e3:d5:17:69:
                    56:f6:af:55:86:36:1e:26:dc:29:67:df:8a:38:c3:
                    47:05:50:58:b4:e6:ea:79:a9:3a:56:9c:88:ae:44:
                    63:b2:c9:0e:31:29:28:65:11:70:93:5e:04:92:b0:
                    5e:3f:b8:ee:22
                ASN1 OID: secp256k1
        X509v3 extensions:
            X509v3 Basic Constraints: 
                CA:FALSE
            Netscape Comment: 
                OpenSSL Generated Certificate
            X509v3 Subject Key Identifier: 
                0B:15:61:5C:AE:71:F0:E4:96:AB:08:49:2A:FD:9D:79:E4:6E:A9:9B
            X509v3 Authority Key Identifier: 
                DirName:/C=CN/ST=Zhejiang/L=Hangzhou/O=hyperchain/OU=root/CN=root cerficition/emailAddress=admin@hyperchain.cn
                serial:88:A2:70:71:9D:11:4E:04

    Signature Algorithm: ecdsa-with-SHA256
         30:46:02:21:00:f9:08:15:06:73:10:f8:aa:44:cc:dd:27:43:
         cd:9b:dc:29:ba:47:fb:aa:a7:64:1e:2c:bf:8a:ec:3c:d2:43:
         88:02:21:00:b9:2d:ab:b1:a5:ba:36:6c:58:78:c2:f4:92:9c:
         3f:a2:89:a7:87:a8:ab:a2:ca:f9:55:cb:25:c1:fa:db:ef:91
-----BEGIN CERTIFICATE-----
MIIDHTCCAsKgAwIBAgIBAjAKBggqhkjOPQQDAjCBljELMAkGA1UEBhMCQ04xETAP
BgNVBAgMCFpoZWppYW5nMREwDwYDVQQHDAhIYW5nemhvdTETMBEGA1UECgwKaHlw
ZXJjaGFpbjENMAsGA1UECwwEcm9vdDEZMBcGA1UEAwwQcm9vdCBjZXJmaWNpdGlv
bjEiMCAGCSqGSIb3DQEJARYTYWRtaW5AaHlwZXJjaGFpbi5jbjAeFw0xNjExMDQx
MTM0MjRaFw0xNzExMDQxMTM0MjRaMIGCMQswCQYDVQQGEwJDTjERMA8GA1UECAwI
WmhlamlhbmcxEzARBgNVBAoMCmh5cGVyY2hhaW4xETAPBgNVBAsMCHN1YnJvb3Qy
MREwDwYDVQQDDAhzdWJyb290MjElMCMGCSqGSIb3DQEJARYWc3Vicm9vdDJAaHlw
ZXJjaGFpbi5jbjBWMBAGByqGSM49AgEGBSuBBAAKA0IABM6AzsgbmAP+X2Pj1Rdp
VvavVYY2HibcKWffijjDRwVQWLTm6nmpOlaciK5EY7LJDjEpKGURcJNeBJKwXj+4
7iKjggEUMIIBEDAJBgNVHRMEAjAAMCwGCWCGSAGG+EIBDQQfFh1PcGVuU1NMIEdl
bmVyYXRlZCBDZXJ0aWZpY2F0ZTAdBgNVHQ4EFgQUCxVhXK5x8OSWqwhJKv2deeRu
qZswgbUGA1UdIwSBrTCBqqGBnKSBmTCBljELMAkGA1UEBhMCQ04xETAPBgNVBAgM
CFpoZWppYW5nMREwDwYDVQQHDAhIYW5nemhvdTETMBEGA1UECgwKaHlwZXJjaGFp
bjENMAsGA1UECwwEcm9vdDEZMBcGA1UEAwwQcm9vdCBjZXJmaWNpdGlvbjEiMCAG
CSqGSIb3DQEJARYTYWRtaW5AaHlwZXJjaGFpbi5jboIJAIiicHGdEU4EMAoGCCqG
SM49BAMCA0kAMEYCIQD5CBUGcxD4qkTM3SdDzZvcKbpH+6qnZB4sv4rsPNJDiAIh
ALktq7GlujZsWHjC9JKcP6KJp4eoq6LK+VXLJcH62++R
-----END CERTIFICATE-----
