Certificate:
    Data:
        Version: 3 (0x2)
        Serial Number: 1 (0x1)
    Signature Algorithm: ecdsa-with-SHA256
        Issuer: C=CN, ST=Zhejiang, O=hyperchain, OU=subroot1, CN=subroot1/emailAddress=subroot@hyperchain.cn
        Validity
            Not Before: Nov  4 11:27:32 2016 GMT
            Not After : Nov  4 11:27:32 2017 GMT
        Subject: C=CN, ST=Zhejiang, O=hyperchain, OU=subroot, CN=node1/emailAddress=node1@hyperchain.cn
        Subject Public Key Info:
            Public Key Algorithm: id-ecPublicKey
                Public-Key: (256 bit)
                pub:
                    04:5d:30:12:79:81:51:75:c8:09:98:44:77:1a:da:
                    e3:ad:10:bc:a4:b4:26:a4:e0:df:68:4f:e8:33:e4:
                    9f:82:bb:78:55:38:43:f0:e9:00:b9:d2:17:24:97:
                    b7:ef:4e:77:48:3c:73:33:74:cd:c3:9b:10:29:82:
                    55:da:4a:b0:fe
                ASN1 OID: secp256k1
        X509v3 extensions:
            X509v3 Basic Constraints:
                CA:FALSE
            Netscape Comment:
                OpenSSL Generated Certificate
            X509v3 Subject Key Identifier:
                2F:A1:5D:D3:05:A5:B7:D4:04:0E:DC:0C:4C:74:60:89:F7:F6:4C:AA
            X509v3 Authority Key Identifier:
                keyid:40:86:16:54:25:12:D4:FE:B1:D8:73:57:FF:7F:E4:73:6B:76:E2:E1

    Signature Algorithm: ecdsa-with-SHA256
         30:45:02:21:00:ab:fe:79:98:3f:d8:74:3e:d9:06:c2:60:4f:
         f1:8a:95:dd:fc:7f:4a:ff:d7:70:bd:62:3b:4c:3e:99:c1:53:
         9d:02:20:16:c0:dd:b5:2d:0d:62:c6:41:62:fd:35:29:c6:e1:
         4c:5f:37:f0:71:f8:50:4c:e7:84:13:b4:88:c4:4a:98:f2
-----BEGIN CERTIFICATE-----
MIICZDCCAgqgAwIBAgIBATAKBggqhkjOPQQDAjCBgTELMAkGA1UEBhMCQ04xETAP
BgNVBAgMCFpoZWppYW5nMRMwEQYDVQQKDApoeXBlcmNoYWluMREwDwYDVQQLDAhz
dWJyb290MTERMA8GA1UEAwwIc3Vicm9vdDExJDAiBgkqhkiG9w0BCQEWFXN1YnJv
b3RAaHlwZXJjaGFpbi5jbjAeFw0xNjExMDQxMTI3MzJaFw0xNzExMDQxMTI3MzJa
MHsxCzAJBgNVBAYTAkNOMREwDwYDVQQIDAhaaGVqaWFuZzETMBEGA1UECgwKaHlw
ZXJjaGFpbjEQMA4GA1UECwwHc3Vicm9vdDEOMAwGA1UEAwwFbm9kZTExIjAgBgkq
hkiG9w0BCQEWE25vZGUxQGh5cGVyY2hhaW4uY24wVjAQBgcqhkjOPQIBBgUrgQQA
CgNCAARdMBJ5gVF1yAmYRHca2uOtELyktCak4N9oT+gz5J+Cu3hVOEPw6QC50hck
l7fvTndIPHMzdM3DmxApglXaSrD+o3sweTAJBgNVHRMEAjAAMCwGCWCGSAGG+EIB
DQQfFh1PcGVuU1NMIEdlbmVyYXRlZCBDZXJ0aWZpY2F0ZTAdBgNVHQ4EFgQUL6Fd
0wWlt9QEDtwMTHRgiff2TKowHwYDVR0jBBgwFoAUQIYWVCUS1P6x2HNX/3/kc2t2
4uEwCgYIKoZIzj0EAwIDSAAwRQIhAKv+eZg/2HQ+2QbCYE/xipXd/H9K/9dwvWI7
TD6ZwVOdAiAWwN21LQ1ixkFi/TUpxuFMXzfwcfhQTOeEE7SIxEqY8g==
-----END CERTIFICATE-----
