Certificate:
    Data:
        Version: 3 (0x2)
        Serial Number: 1 (0x1)
    Signature Algorithm: ecdsa-with-SHA256
        Issuer: C=CN, ST=Zhejiang, L=Hangzhou, O=hyperchain, OU=root, CN=root cerficition/emailAddress=admin@hyperchain.cn
        Validity
            Not Before: Nov  4 11:08:47 2016 GMT
            Not After : Nov  4 11:08:47 2017 GMT
        Subject: C=CN, ST=Zhejiang, O=hyperchain, OU=subroot1, CN=subroot1/emailAddress=subroot@hyperchain.cn
        Subject Public Key Info:
            Public Key Algorithm: id-ecPublicKey
                Public-Key: (256 bit)
                pub:
                    04:e5:67:76:4a:3b:ae:dc:12:14:e5:ce:97:d6:01:
                    21:41:a1:f7:bb:e0:bf:e8:fc:51:1a:ec:68:e7:00:
                    86:9f:14:f0:ed:42:8b:78:2e:93:9e:60:3a:72:49:
                    97:ef:cc:bc:e1:c3:a3:de:55:27:07:58:c3:4f:cc:
                    19:a1:0f:b2:52
                ASN1 OID: secp256k1
        X509v3 extensions:
            X509v3 Basic Constraints:
                CA:FALSE
            Netscape Comment:
                OpenSSL Generated Certificate
            X509v3 Subject Key Identifier:
                40:86:16:54:25:12:D4:FE:B1:D8:73:57:FF:7F:E4:73:6B:76:E2:E1
            X509v3 Authority Key Identifier:
                DirName:/C=CN/ST=Zhejiang/L=Hangzhou/O=hyperchain/OU=root/CN=root cerficition/emailAddress=admin@hyperchain.cn
                serial:88:A2:70:71:9D:11:4E:04

    Signature Algorithm: ecdsa-with-SHA256
         30:44:02:20:64:76:db:be:10:2f:ac:ff:24:e1:15:29:6a:1f:
         72:cb:5a:de:65:2a:6b:cf:ef:3d:56:96:bc:a2:f2:41:95:25:
         02:20:70:da:0d:e3:c6:03:23:b0:ea:0a:8a:26:5f:f2:1d:0c:
         b0:77:d3:1b:44:b6:26:bd:4e:f0:8d:ee:69:59:99:13
-----BEGIN CERTIFICATE-----
MIIDGjCCAsGgAwIBAgIBATAKBggqhkjOPQQDAjCBljELMAkGA1UEBhMCQ04xETAP
BgNVBAgMCFpoZWppYW5nMREwDwYDVQQHDAhIYW5nemhvdTETMBEGA1UECgwKaHlw
ZXJjaGFpbjENMAsGA1UECwwEcm9vdDEZMBcGA1UEAwwQcm9vdCBjZXJmaWNpdGlv
bjEiMCAGCSqGSIb3DQEJARYTYWRtaW5AaHlwZXJjaGFpbi5jbjAeFw0xNjExMDQx
MTA4NDdaFw0xNzExMDQxMTA4NDdaMIGBMQswCQYDVQQGEwJDTjERMA8GA1UECAwI
WmhlamlhbmcxEzARBgNVBAoMCmh5cGVyY2hhaW4xETAPBgNVBAsMCHN1YnJvb3Qx
MREwDwYDVQQDDAhzdWJyb290MTEkMCIGCSqGSIb3DQEJARYVc3Vicm9vdEBoeXBl
cmNoYWluLmNuMFYwEAYHKoZIzj0CAQYFK4EEAAoDQgAE5Wd2Sjuu3BIU5c6X1gEh
QaH3u+C/6PxRGuxo5wCGnxTw7UKLeC6TnmA6ckmX78y84cOj3lUnB1jDT8wZoQ+y
UqOCARQwggEQMAkGA1UdEwQCMAAwLAYJYIZIAYb4QgENBB8WHU9wZW5TU0wgR2Vu
ZXJhdGVkIENlcnRpZmljYXRlMB0GA1UdDgQWBBRAhhZUJRLU/rHYc1f/f+Rza3bi
4TCBtQYDVR0jBIGtMIGqoYGcpIGZMIGWMQswCQYDVQQGEwJDTjERMA8GA1UECAwI
WmhlamlhbmcxETAPBgNVBAcMCEhhbmd6aG91MRMwEQYDVQQKDApoeXBlcmNoYWlu
MQ0wCwYDVQQLDARyb290MRkwFwYDVQQDDBByb290IGNlcmZpY2l0aW9uMSIwIAYJ
KoZIhvcNAQkBFhNhZG1pbkBoeXBlcmNoYWluLmNuggkAiKJwcZ0RTgQwCgYIKoZI
zj0EAwIDRwAwRAIgZHbbvhAvrP8k4RUpah9yy1reZSprz+89Vpa8ovJBlSUCIHDa
DePGAyOw6gqKJl/yHQywd9MbRLYmvU7wje5pWZkT
-----END CERTIFICATE-----
